; Function Attrs: mustprogress nofree norecurse nosync nounwind willreturn memory(argmem: write) uwtable
define hidden noundef ptr @_Z34pj_projection_specific_setup_putp2P8PJconsts(ptr noundef returned writeonly initializes((104, 120), (216, 224)) %0) local_unnamed_addr #1 {
  %2 = getelementptr inbounds nuw i8, ptr %0, i64 216
  store double 0.000000e+00, ptr %2, align 8, !tbaa !3
  %3 = getelementptr inbounds nuw i8, ptr %0, i64 112
  store ptr @_ZL15putp2_s_inverse5PJ_XYP8PJconsts, ptr %3, align 8, !tbaa !36
  %4 = getelementptr inbounds nuw i8, ptr %0, i64 104
  store ptr @_ZL15putp2_s_forward5PJ_LPP8PJconsts, ptr %4, align 8, !tbaa !37
  ret ptr %0
}